target datalayout = "e-m:e-p270:32:32-p271:32:32-p272:64:64-i64:64-i128:128-f80:128-n8:16:32:64-S128"
target triple = "x86_64-unknown-linux-gnu"

%"struct.Imf_3_2::DeepScanLineOutputFile::Data" = type <{ %"class.Imf_3_2::Header", i32, i8, [3 x i8], i64, %"class.Imf_3_2::DeepFrameBuffer", i32, i32, i32, i32, i32, i32, i32, [4 x i8], %"class.std::vector", %"class.std::vector", i32, [4 x i8], %"class.std::vector.11", i64, %"class.std::vector.16", i32, i32, ptr, i32, i32, %"class.Imf_3_2::Array", i64, ptr, i8, [7 x i8] }>
%"class.Imf_3_2::Header" = type <{ %"class.std::map", i8, [7 x i8] }>
%"class.std::map" = type { %"class.std::_Rb_tree" }
%"class.std::_Rb_tree" = type { %"struct.std::_Rb_tree<Imf_3_2::Name, std::pair<const Imf_3_2::Name, Imf_3_2::Attribute *>, std::_Select1st<std::pair<const Imf_3_2::Name, Imf_3_2::Attribute *>>, std::less<Imf_3_2::Name>>::_Rb_tree_impl" }
%"struct.std::_Rb_tree<Imf_3_2::Name, std::pair<const Imf_3_2::Name, Imf_3_2::Attribute *>, std::_Select1st<std::pair<const Imf_3_2::Name, Imf_3_2::Attribute *>>, std::less<Imf_3_2::Name>>::_Rb_tree_impl" = type { %"struct.std::_Rb_tree_key_compare", %"struct.std::_Rb_tree_header" }
%"struct.std::_Rb_tree_key_compare" = type { %"struct.std::less" }
%"struct.std::less" = type { i8 }
%"struct.std::_Rb_tree_header" = type { %"struct.std::_Rb_tree_node_base", i64 }
%"struct.std::_Rb_tree_node_base" = type { i32, ptr, ptr, ptr }
%"class.Imf_3_2::DeepFrameBuffer" = type { %"class.std::map.3", %"struct.Imf_3_2::Slice" }
%"class.std::map.3" = type { %"class.std::_Rb_tree.4" }
%"class.std::_Rb_tree.4" = type { %"struct.std::_Rb_tree<Imf_3_2::Name, std::pair<const Imf_3_2::Name, Imf_3_2::DeepSlice>, std::_Select1st<std::pair<const Imf_3_2::Name, Imf_3_2::DeepSlice>>, std::less<Imf_3_2::Name>>::_Rb_tree_impl" }
%"struct.std::_Rb_tree<Imf_3_2::Name, std::pair<const Imf_3_2::Name, Imf_3_2::DeepSlice>, std::_Select1st<std::pair<const Imf_3_2::Name, Imf_3_2::DeepSlice>>, std::less<Imf_3_2::Name>>::_Rb_tree_impl" = type { %"struct.std::_Rb_tree_key_compare", %"struct.std::_Rb_tree_header" }
%"struct.Imf_3_2::Slice" = type <{ i32, [4 x i8], ptr, i64, i64, i32, i32, double, i8, i8, [6 x i8] }>
%"class.std::vector" = type { %"struct.std::_Vector_base" }
%"struct.std::_Vector_base" = type { %"struct.std::_Vector_base<unsigned long, std::allocator<unsigned long>>::_Vector_impl" }
%"struct.std::_Vector_base<unsigned long, std::allocator<unsigned long>>::_Vector_impl" = type { %"struct.std::_Vector_base<unsigned long, std::allocator<unsigned long>>::_Vector_impl_data" }
%"struct.std::_Vector_base<unsigned long, std::allocator<unsigned long>>::_Vector_impl_data" = type { ptr, ptr, ptr }
%"class.std::vector.11" = type { %"struct.std::_Vector_base.12" }
%"struct.std::_Vector_base.12" = type { %"struct.std::_Vector_base<Imf_3_2::(anonymous namespace)::OutSliceInfo *, std::allocator<Imf_3_2::(anonymous namespace)::OutSliceInfo *>>::_Vector_impl" }
%"struct.std::_Vector_base<Imf_3_2::(anonymous namespace)::OutSliceInfo *, std::allocator<Imf_3_2::(anonymous namespace)::OutSliceInfo *>>::_Vector_impl" = type { %"struct.std::_Vector_base<Imf_3_2::(anonymous namespace)::OutSliceInfo *, std::allocator<Imf_3_2::(anonymous namespace)::OutSliceInfo *>>::_Vector_impl_data" }
%"struct.std::_Vector_base<Imf_3_2::(anonymous namespace)::OutSliceInfo *, std::allocator<Imf_3_2::(anonymous namespace)::OutSliceInfo *>>::_Vector_impl_data" = type { ptr, ptr, ptr }
%"class.std::vector.16" = type { %"struct.std::_Vector_base.17" }
%"struct.std::_Vector_base.17" = type { %"struct.std::_Vector_base<Imf_3_2::(anonymous namespace)::LineBuffer *, std::allocator<Imf_3_2::(anonymous namespace)::LineBuffer *>>::_Vector_impl" }
%"struct.std::_Vector_base<Imf_3_2::(anonymous namespace)::LineBuffer *, std::allocator<Imf_3_2::(anonymous namespace)::LineBuffer *>>::_Vector_impl" = type { %"struct.std::_Vector_base<Imf_3_2::(anonymous namespace)::LineBuffer *, std::allocator<Imf_3_2::(anonymous namespace)::LineBuffer *>>::_Vector_impl_data" }
%"struct.std::_Vector_base<Imf_3_2::(anonymous namespace)::LineBuffer *, std::allocator<Imf_3_2::(anonymous namespace)::LineBuffer *>>::_Vector_impl_data" = type { ptr, ptr, ptr }
%"class.Imf_3_2::Array" = type { i64, ptr }
%"class.Imf_3_2::DeepScanLineOutputFile" = type { %"class.Imf_3_2::GenericOutputFile", ptr }
%"class.Imf_3_2::GenericOutputFile" = type { ptr }
%"struct.Imf_3_2::OutputStreamMutex" = type { %"class.std::mutex", ptr, i64 }
%"class.std::mutex" = type { %"class.std::__mutex_base" }
%"class.std::__mutex_base" = type { %union.pthread_mutex_t }
%union.pthread_mutex_t = type { %struct.__pthread_mutex_s }
%struct.__pthread_mutex_s = type { i32, i32, i32, i32, i32, i16, i16, %struct.__pthread_internal_list }
%struct.__pthread_internal_list = type { ptr, ptr }
%"class.std::lock_guard" = type { ptr }

@_ZTVN7Imf_3_222DeepScanLineOutputFileE = unnamed_addr constant { [4 x ptr] } { [4 x ptr] [ptr null, ptr @_ZTIN7Imf_3_222DeepScanLineOutputFileE, ptr @_ZN7Imf_3_222DeepScanLineOutputFileD1Ev, ptr @_ZN7Imf_3_222DeepScanLineOutputFileD0Ev] }, align 8
@_ZN7Imf_3_222DeepScanLineOutputFile4DataD1Ev = unnamed_addr alias void (ptr), ptr @_ZN7Imf_3_222DeepScanLineOutputFile4DataD2Ev

; Function Attrs: mustprogress nounwind uwtable
define internal noundef i32 @_ZL18__gthread_active_pv() #5 {
entry:
  ret i32 1
}

; Function Attrs: mustprogress nounwind uwtable
define internal noundef i32 @_ZL22__gthread_mutex_unlockP15pthread_mutex_t(ptr noundef %__mutex) #5 {
entry:
  %retval = alloca i32, align 4
  %__mutex.addr = alloca ptr, align 8
  store ptr %__mutex, ptr %__mutex.addr, align 8
  %call = call noundef i32 @_ZL18__gthread_active_pv()
  %tobool = icmp ne i32 %call, 0
  br i1 %tobool, label %if.then, label %if.else

if.then:                                          ; preds = %entry
  %0 = load ptr, ptr %__mutex.addr, align 8
  %call1 = call i32 @pthread_mutex_unlock(ptr noundef %0) #3
  store i32 %call1, ptr %retval, align 4
  br label %return

if.else:                                          ; preds = %entry
  store i32 0, ptr %retval, align 4
  br label %return

return:                                           ; preds = %if.else, %if.then
  %1 = load i32, ptr %retval, align 4
  ret i32 %1
}

; Function Attrs: mustprogress uwtable
define internal noundef i32 @_ZL20__gthread_mutex_lockP15pthread_mutex_t(ptr noundef %__mutex) #4 {
entry:
  %retval = alloca i32, align 4
  %__mutex.addr = alloca ptr, align 8
  store ptr %__mutex, ptr %__mutex.addr, align 8
  %call = call noundef i32 @_ZL18__gthread_active_pv()
  %tobool = icmp ne i32 %call, 0
  br i1 %tobool, label %if.then, label %if.else

if.then:                                          ; preds = %entry
  %0 = load ptr, ptr %__mutex.addr, align 8
  %call1 = call i32 @pthread_mutex_lock(ptr noundef %0) #3
  store i32 %call1, ptr %retval, align 4
  br label %return

if.else:                                          ; preds = %entry
  store i32 0, ptr %retval, align 4
  br label %return

return:                                           ; preds = %if.else, %if.then
  %1 = load i32, ptr %retval, align 4
  ret i32 %1
}

; Function Attrs: mustprogress uwtable
define linkonce_odr hidden void @_ZNSt5mutex6unlockEv(ptr noundef nonnull align 8 dereferenceable(40) %this) #4 comdat align 2 {
entry:
  %this.addr = alloca ptr, align 8
  store ptr %this, ptr %this.addr, align 8
  %this1 = load ptr, ptr %this.addr, align 8
  %_M_mutex = getelementptr inbounds %"class.std::__mutex_base", ptr %this1, i32 0, i32 0
  %call = call noundef i32 @_ZL22__gthread_mutex_unlockP15pthread_mutex_t(ptr noundef %_M_mutex)
  ret void
}

; Function Attrs: mustprogress uwtable
define linkonce_odr hidden void @_ZNSt5mutex4lockEv(ptr noundef nonnull align 8 dereferenceable(40) %this) #4 comdat align 2 {
entry:
  %this.addr = alloca ptr, align 8
  %__e = alloca i32, align 4
  store ptr %this, ptr %this.addr, align 8
  %this1 = load ptr, ptr %this.addr, align 8
  %_M_mutex = getelementptr inbounds %"class.std::__mutex_base", ptr %this1, i32 0, i32 0
  %call = call noundef i32 @_ZL20__gthread_mutex_lockP15pthread_mutex_t(ptr noundef %_M_mutex)
  store i32 %call, ptr %__e, align 4
  %0 = load i32, ptr %__e, align 4
  %tobool = icmp ne i32 %0, 0
  br i1 %tobool, label %if.then, label %if.end

if.then:                                          ; preds = %entry
  %1 = load i32, ptr %__e, align 4
  call void @_ZSt20__throw_system_errori(i32 noundef %1) #17
  unreachable

if.end:                                           ; preds = %entry
  ret void
}

; Function Attrs: mustprogress nounwind uwtable
define linkonce_odr hidden void @_ZNSt10lock_guardISt5mutexED2Ev(ptr noundef nonnull align 8 dereferenceable(8) %this) unnamed_addr #5 comdat align 2 personality ptr @__gxx_personality_v0 {
entry:
  %this.addr = alloca ptr, align 8
  store ptr %this, ptr %this.addr, align 8
  %this1 = load ptr, ptr %this.addr, align 8
  %_M_device = getelementptr inbounds %"class.std::lock_guard", ptr %this1, i32 0, i32 0
  %0 = load ptr, ptr %_M_device, align 8
  invoke void @_ZNSt5mutex6unlockEv(ptr noundef nonnull align 8 dereferenceable(40) %0)
          to label %invoke.cont unwind label %terminate.lpad

invoke.cont:                                      ; preds = %entry
  ret void

terminate.lpad:                                   ; preds = %entry
  %1 = landingpad { ptr, i32 }
          catch ptr null
  %2 = extractvalue { ptr, i32 } %1, 0
  call void @__clang_call_terminate(ptr %2) #19
  unreachable
}

; Function Attrs: mustprogress uwtable
define linkonce_odr hidden void @_ZNSt10lock_guardISt5mutexEC2ERS0_(ptr noundef nonnull align 8 dereferenceable(8) %this, ptr noundef nonnull align 8 dereferenceable(40) %__m) unnamed_addr #4 comdat align 2 {
entry:
  %this.addr = alloca ptr, align 8
  %__m.addr = alloca ptr, align 8
  store ptr %this, ptr %this.addr, align 8
  store ptr %__m, ptr %__m.addr, align 8
  %this1 = load ptr, ptr %this.addr, align 8
  %_M_device = getelementptr inbounds %"class.std::lock_guard", ptr %this1, i32 0, i32 0
  %0 = load ptr, ptr %__m.addr, align 8
  store ptr %0, ptr %_M_device, align 8
  %_M_device2 = getelementptr inbounds %"class.std::lock_guard", ptr %this1, i32 0, i32 0
  %1 = load ptr, ptr %_M_device2, align 8
  call void @_ZNSt5mutex4lockEv(ptr noundef nonnull align 8 dereferenceable(40) %1)
  ret void
}

; Function Attrs: mustprogress nounwind uwtable
define void @_ZN7Imf_3_222DeepScanLineOutputFileD2Ev(ptr noundef nonnull align 8 dereferenceable(16) %this) unnamed_addr #5 align 2 personality ptr @__gxx_personality_v0 {
entry:
  %this.addr = alloca ptr, align 8
  %lock = alloca %"class.std::lock_guard", align 8
  %originalPosition = alloca i64, align 8
  %exn.slot = alloca ptr, align 8
  %ehselector.slot = alloca i32, align 4
  store ptr %this, ptr %this.addr, align 8
  %this1 = load ptr, ptr %this.addr, align 8
  store ptr getelementptr inbounds ({ [4 x ptr] }, ptr @_ZTVN7Imf_3_222DeepScanLineOutputFileE, i32 0, i32 0, i32 2), ptr %this1, align 8
  %_data = getelementptr inbounds %"class.Imf_3_2::DeepScanLineOutputFile", ptr %this1, i32 0, i32 1
  %0 = load ptr, ptr %_data, align 8
  %_streamData = getelementptr inbounds %"struct.Imf_3_2::DeepScanLineOutputFile::Data", ptr %0, i32 0, i32 28
  %1 = load ptr, ptr %_streamData, align 8
  invoke void @_ZNSt10lock_guardISt5mutexEC2ERS0_(ptr noundef nonnull align 8 dereferenceable(8) %lock, ptr noundef nonnull align 8 dereferenceable(40) %1)
          to label %invoke.cont unwind label %terminate.lpad

invoke.cont:                                      ; preds = %entry
  %_data2 = getelementptr inbounds %"class.Imf_3_2::DeepScanLineOutputFile", ptr %this1, i32 0, i32 1
  %2 = load ptr, ptr %_data2, align 8
  %_streamData3 = getelementptr inbounds %"struct.Imf_3_2::DeepScanLineOutputFile::Data", ptr %2, i32 0, i32 28
  %3 = load ptr, ptr %_streamData3, align 8
  %os = getelementptr inbounds %"struct.Imf_3_2::OutputStreamMutex", ptr %3, i32 0, i32 1
  %4 = load ptr, ptr %os, align 8
  %vtable = load ptr, ptr %4, align 8
  %vfn = getelementptr inbounds ptr, ptr %vtable, i64 3
  %5 = load ptr, ptr %vfn, align 8
  %call = invoke noundef i64 %5(ptr noundef nonnull align 8 dereferenceable(40) %4)
          to label %invoke.cont4 unwind label %terminate.lpad

invoke.cont4:                                     ; preds = %invoke.cont
  store i64 %call, ptr %originalPosition, align 8
  %_data5 = getelementptr inbounds %"class.Imf_3_2::DeepScanLineOutputFile", ptr %this1, i32 0, i32 1
  %6 = load ptr, ptr %_data5, align 8
  %lineOffsetsPosition = getelementptr inbounds %"struct.Imf_3_2::DeepScanLineOutputFile::Data", ptr %6, i32 0, i32 19
  %7 = load i64, ptr %lineOffsetsPosition, align 8
  %cmp = icmp ugt i64 %7, 0
  br i1 %cmp, label %if.then, label %if.end

if.then:                                          ; preds = %invoke.cont4
  %_data6 = getelementptr inbounds %"class.Imf_3_2::DeepScanLineOutputFile", ptr %this1, i32 0, i32 1
  %8 = load ptr, ptr %_data6, align 8
  %_streamData7 = getelementptr inbounds %"struct.Imf_3_2::DeepScanLineOutputFile::Data", ptr %8, i32 0, i32 28
  %9 = load ptr, ptr %_streamData7, align 8
  %os8 = getelementptr inbounds %"struct.Imf_3_2::OutputStreamMutex", ptr %9, i32 0, i32 1
  %10 = load ptr, ptr %os8, align 8
  %_data9 = getelementptr inbounds %"class.Imf_3_2::DeepScanLineOutputFile", ptr %this1, i32 0, i32 1
  %11 = load ptr, ptr %_data9, align 8
  %lineOffsetsPosition10 = getelementptr inbounds %"struct.Imf_3_2::DeepScanLineOutputFile::Data", ptr %11, i32 0, i32 19
  %12 = load i64, ptr %lineOffsetsPosition10, align 8
  %vtable11 = load ptr, ptr %10, align 8
  %vfn12 = getelementptr inbounds ptr, ptr %vtable11, i64 4
  %13 = load ptr, ptr %vfn12, align 8
  invoke void %13(ptr noundef nonnull align 8 dereferenceable(40) %10, i64 noundef %12)
          to label %invoke.cont13 unwind label %lpad

invoke.cont13:                                    ; preds = %if.then
  %_data14 = getelementptr inbounds %"class.Imf_3_2::DeepScanLineOutputFile", ptr %this1, i32 0, i32 1
  %14 = load ptr, ptr %_data14, align 8
  %_streamData15 = getelementptr inbounds %"struct.Imf_3_2::DeepScanLineOutputFile::Data", ptr %14, i32 0, i32 28
  %15 = load ptr, ptr %_streamData15, align 8
  %os16 = getelementptr inbounds %"struct.Imf_3_2::OutputStreamMutex", ptr %15, i32 0, i32 1
  %16 = load ptr, ptr %os16, align 8
  %_data17 = getelementptr inbounds %"class.Imf_3_2::DeepScanLineOutputFile", ptr %this1, i32 0, i32 1
  %17 = load ptr, ptr %_data17, align 8
  %lineOffsets = getelementptr inbounds %"struct.Imf_3_2::DeepScanLineOutputFile::Data", ptr %17, i32 0, i32 14
  %call19 = invoke noundef i64 @_ZN7Imf_3_212_GLOBAL__N_116writeLineOffsetsERNS_7OStreamERKSt6vectorImSaImEE(ptr noundef nonnull align 8 dereferenceable(40) %16, ptr noundef nonnull align 8 dereferenceable(24) %lineOffsets)
          to label %invoke.cont18 unwind label %lpad

invoke.cont18:                                    ; preds = %invoke.cont13
  %_data20 = getelementptr inbounds %"class.Imf_3_2::DeepScanLineOutputFile", ptr %this1, i32 0, i32 1
  %18 = load ptr, ptr %_data20, align 8
  %_streamData21 = getelementptr inbounds %"struct.Imf_3_2::DeepScanLineOutputFile::Data", ptr %18, i32 0, i32 28
  %19 = load ptr, ptr %_streamData21, align 8
  %os22 = getelementptr inbounds %"struct.Imf_3_2::OutputStreamMutex", ptr %19, i32 0, i32 1
  %20 = load ptr, ptr %os22, align 8
  %21 = load i64, ptr %originalPosition, align 8
  %vtable23 = load ptr, ptr %20, align 8
  %vfn24 = getelementptr inbounds ptr, ptr %vtable23, i64 4
  %22 = load ptr, ptr %vfn24, align 8
  invoke void %22(ptr noundef nonnull align 8 dereferenceable(40) %20, i64 noundef %21)
          to label %invoke.cont25 unwind label %lpad

invoke.cont25:                                    ; preds = %invoke.cont18
  br label %try.cont

lpad:                                             ; preds = %invoke.cont18, %invoke.cont13, %if.then
  %23 = landingpad { ptr, i32 }
          catch ptr null
  %24 = extractvalue { ptr, i32 } %23, 0
  store ptr %24, ptr %exn.slot, align 8
  %25 = extractvalue { ptr, i32 } %23, 1
  store i32 %25, ptr %ehselector.slot, align 4
  br label %catch

catch:                                            ; preds = %lpad
  %exn = load ptr, ptr %exn.slot, align 8
  %26 = call ptr @__cxa_begin_catch(ptr %exn) #3
  invoke void @__cxa_end_catch()
          to label %invoke.cont26 unwind label %terminate.lpad

invoke.cont26:                                    ; preds = %catch
  br label %try.cont

try.cont:                                         ; preds = %invoke.cont26, %invoke.cont25
  br label %if.end

if.end:                                           ; preds = %try.cont, %invoke.cont4
  call void @_ZNSt10lock_guardISt5mutexED2Ev(ptr noundef nonnull align 8 dereferenceable(8) %lock) #3
  %_data27 = getelementptr inbounds %"class.Imf_3_2::DeepScanLineOutputFile", ptr %this1, i32 0, i32 1
  %27 = load ptr, ptr %_data27, align 8
  %_deleteStream = getelementptr inbounds %"struct.Imf_3_2::DeepScanLineOutputFile::Data", ptr %27, i32 0, i32 29
  %28 = load i8, ptr %_deleteStream, align 8
  %tobool = trunc i8 %28 to i1
  br i1 %tobool, label %if.then28, label %if.end34

if.then28:                                        ; preds = %if.end
  %_data29 = getelementptr inbounds %"class.Imf_3_2::DeepScanLineOutputFile", ptr %this1, i32 0, i32 1
  %29 = load ptr, ptr %_data29, align 8
  %_streamData30 = getelementptr inbounds %"struct.Imf_3_2::DeepScanLineOutputFile::Data", ptr %29, i32 0, i32 28
  %30 = load ptr, ptr %_streamData30, align 8
  %os31 = getelementptr inbounds %"struct.Imf_3_2::OutputStreamMutex", ptr %30, i32 0, i32 1
  %31 = load ptr, ptr %os31, align 8
  %isnull = icmp eq ptr %31, null
  br i1 %isnull, label %delete.end, label %delete.notnull

delete.notnull:                                   ; preds = %if.then28
  %vtable32 = load ptr, ptr %31, align 8
  %vfn33 = getelementptr inbounds ptr, ptr %vtable32, i64 1
  %32 = load ptr, ptr %vfn33, align 8
  call void %32(ptr noundef nonnull align 8 dereferenceable(40) %31) #3
  br label %delete.end

delete.end:                                       ; preds = %delete.notnull, %if.then28
  br label %if.end34

if.end34:                                         ; preds = %delete.end, %if.end
  %_data35 = getelementptr inbounds %"class.Imf_3_2::DeepScanLineOutputFile", ptr %this1, i32 0, i32 1
  %33 = load ptr, ptr %_data35, align 8
  %partNumber = getelementptr inbounds %"struct.Imf_3_2::DeepScanLineOutputFile::Data", ptr %33, i32 0, i32 22
  %34 = load i32, ptr %partNumber, align 4
  %cmp36 = icmp eq i32 %34, -1
  br i1 %cmp36, label %if.then37, label %if.end43

if.then37:                                        ; preds = %if.end34
  %_data38 = getelementptr inbounds %"class.Imf_3_2::DeepScanLineOutputFile", ptr %this1, i32 0, i32 1
  %35 = load ptr, ptr %_data38, align 8
  %_streamData39 = getelementptr inbounds %"struct.Imf_3_2::DeepScanLineOutputFile::Data", ptr %35, i32 0, i32 28
  %36 = load ptr, ptr %_streamData39, align 8
  %isnull40 = icmp eq ptr %36, null
  br i1 %isnull40, label %delete.end42, label %delete.notnull41

delete.notnull41:                                 ; preds = %if.then37
  call void @_ZdlPv(ptr noundef %36) #18
  br label %delete.end42

delete.end42:                                     ; preds = %delete.notnull41, %if.then37
  br label %if.end43

if.end43:                                         ; preds = %delete.end42, %if.end34
  %_data44 = getelementptr inbounds %"class.Imf_3_2::DeepScanLineOutputFile", ptr %this1, i32 0, i32 1
  %37 = load ptr, ptr %_data44, align 8
  %isnull45 = icmp eq ptr %37, null
  br i1 %isnull45, label %delete.end47, label %delete.notnull46

delete.notnull46:                                 ; preds = %if.end43
  call void @_ZN7Imf_3_222DeepScanLineOutputFile4DataD1Ev(ptr noundef nonnull align 8 dereferenceable(377) %37) #3
  call void @_ZdlPv(ptr noundef %37) #18
  br label %delete.end47

delete.end47:                                     ; preds = %delete.notnull46, %if.end43
  call void @_ZN7Imf_3_217GenericOutputFileD2Ev(ptr noundef nonnull align 8 dereferenceable(8) %this1) #3
  ret void

terminate.lpad:                                   ; preds = %catch, %invoke.cont, %entry
  %38 = landingpad { ptr, i32 }
          catch ptr null
  %39 = extractvalue { ptr, i32 } %38, 0
  call void @__clang_call_terminate(ptr %39) #19
  unreachable
}