; Function Attrs: mustprogress nounwind uwtable
define void @_ZN7Imf_3_222DeepScanLineOutputFileD2Ev(ptr noundef nonnull align 8 dereferenceable(16) %this) unnamed_addr #4 align 2 personality ptr @__gxx_personality_v0 {
entry:
  store ptr getelementptr inbounds ({ [4 x ptr] }, ptr @_ZTVN7Imf_3_222DeepScanLineOutputFileE, i64 0, i32 0, i64 2), ptr %this, align 8
  %_data = getelementptr inbounds i8, ptr %this, i64 8
  %0 = load ptr, ptr %_data, align 8
  %_streamData = getelementptr inbounds i8, ptr %0, i64 368
  %1 = load ptr, ptr %_streamData, align 8
  %call1.i.i.i = tail call noundef i32 @pthread_mutex_lock(ptr noundef nonnull %1) #20
  %tobool.not.i.i = icmp eq i32 %call1.i.i.i, 0
  br i1 %tobool.not.i.i, label %invoke.cont, label %if.then.i.i

if.then.i.i:                                      ; preds = %entry
  invoke void @_ZSt20__throw_system_errori(i32 noundef %call1.i.i.i) #24
          to label %.noexc unwind label %terminate.lpad

.noexc:                                           ; preds = %if.then.i.i
  unreachable

invoke.cont:                                      ; preds = %entry
  %2 = load ptr, ptr %_data, align 8
  %_streamData3 = getelementptr inbounds i8, ptr %2, i64 368
  %3 = load ptr, ptr %_streamData3, align 8
  %os = getelementptr inbounds i8, ptr %3, i64 40
  %4 = load ptr, ptr %os, align 8
  %vtable = load ptr, ptr %4, align 8
  %vfn = getelementptr inbounds i8, ptr %vtable, i64 24
  %5 = load ptr, ptr %vfn, align 8
  %call = invoke noundef i64 %5(ptr noundef nonnull align 8 dereferenceable(40) %4)
          to label %invoke.cont4 unwind label %terminate.lpad

invoke.cont4:                                     ; preds = %invoke.cont
  %6 = load ptr, ptr %_data, align 8
  %lineOffsetsPosition = getelementptr inbounds i8, ptr %6, i64 288
  %7 = load i64, ptr %lineOffsetsPosition, align 8
  %cmp.not = icmp eq i64 %7, 0
  br i1 %cmp.not, label %if.end, label %if.then

if.then:                                          ; preds = %invoke.cont4
  %_streamData7 = getelementptr inbounds i8, ptr %6, i64 368
  %8 = load ptr, ptr %_streamData7, align 8
  %os8 = getelementptr inbounds i8, ptr %8, i64 40
  %9 = load ptr, ptr %os8, align 8
  %vtable11 = load ptr, ptr %9, align 8
  %vfn12 = getelementptr inbounds i8, ptr %vtable11, i64 32
  %10 = load ptr, ptr %vfn12, align 8
  invoke void %10(ptr noundef nonnull align 8 dereferenceable(40) %9, i64 noundef %7)
          to label %invoke.cont13 unwind label %lpad

invoke.cont13:                                    ; preds = %if.then
  %11 = load ptr, ptr %_data, align 8
  %_streamData15 = getelementptr inbounds i8, ptr %11, i64 368
  %12 = load ptr, ptr %_streamData15, align 8
  %os16 = getelementptr inbounds i8, ptr %12, i64 40
  %13 = load ptr, ptr %os16, align 8
  %lineOffsets = getelementptr inbounds i8, ptr %11, i64 208
  %call19 = invoke fastcc noundef i64 @_ZN7Imf_3_212_GLOBAL__N_116writeLineOffsetsERNS_7OStreamERKSt6vectorImSaImEE(ptr noundef nonnull align 8 dereferenceable(40) %13, ptr noundef nonnull align 8 dereferenceable(24) %lineOffsets)
          to label %invoke.cont18 unwind label %lpad

invoke.cont18:                                    ; preds = %invoke.cont13
  %14 = load ptr, ptr %_data, align 8
  %_streamData21 = getelementptr inbounds i8, ptr %14, i64 368
  %15 = load ptr, ptr %_streamData21, align 8
  %os22 = getelementptr inbounds i8, ptr %15, i64 40
  %16 = load ptr, ptr %os22, align 8
  %vtable23 = load ptr, ptr %16, align 8
  %vfn24 = getelementptr inbounds i8, ptr %vtable23, i64 32
  %17 = load ptr, ptr %vfn24, align 8
  invoke void %17(ptr noundef nonnull align 8 dereferenceable(40) %16, i64 noundef %call)
          to label %if.end unwind label %lpad

lpad:                                             ; preds = %invoke.cont18, %invoke.cont13, %if.then
  %18 = landingpad { ptr, i32 }
          catch ptr null
  %19 = extractvalue { ptr, i32 } %18, 0
  %20 = tail call ptr @__cxa_begin_catch(ptr %19) #20
  invoke void @__cxa_end_catch()
          to label %if.end unwind label %terminate.lpad

if.end:                                           ; preds = %invoke.cont18, %lpad, %invoke.cont4
  %call1.i.i.i4 = tail call noundef i32 @pthread_mutex_unlock(ptr noundef nonnull %1) #20
  %21 = load ptr, ptr %_data, align 8
  %_deleteStream = getelementptr inbounds i8, ptr %21, i64 376
  %22 = load i8, ptr %_deleteStream, align 8
  %23 = and i8 %22, 1
  %tobool.not = icmp eq i8 %23, 0
  br i1 %tobool.not, label %if.end34, label %if.then28

if.then28:                                        ; preds = %if.end
  %_streamData30 = getelementptr inbounds i8, ptr %21, i64 368
  %24 = load ptr, ptr %_streamData30, align 8
  %os31 = getelementptr inbounds i8, ptr %24, i64 40
  %25 = load ptr, ptr %os31, align 8
  %isnull = icmp eq ptr %25, null
  br i1 %isnull, label %if.end34, label %delete.notnull

delete.notnull:                                   ; preds = %if.then28
  %vtable32 = load ptr, ptr %25, align 8
  %vfn33 = getelementptr inbounds i8, ptr %vtable32, i64 8
  %26 = load ptr, ptr %vfn33, align 8
  tail call void %26(ptr noundef nonnull align 8 dereferenceable(40) %25) #20
  %.pre = load ptr, ptr %_data, align 8
  br label %if.end34

if.end34:                                         ; preds = %if.then28, %delete.notnull, %if.end
  %27 = phi ptr [ %21, %if.then28 ], [ %.pre, %delete.notnull ], [ %21, %if.end ]
  %partNumber = getelementptr inbounds i8, ptr %27, i64 324
  %28 = load i32, ptr %partNumber, align 4
  %cmp36 = icmp eq i32 %28, -1
  br i1 %cmp36, label %if.then37, label %delete.notnull46

if.then37:                                        ; preds = %if.end34
  %_streamData39 = getelementptr inbounds i8, ptr %27, i64 368
  %29 = load ptr, ptr %_streamData39, align 8
  %isnull40 = icmp eq ptr %29, null
  br i1 %isnull40, label %delete.notnull46, label %if.end43

if.end43:                                         ; preds = %if.then37
  tail call void @_ZdlPv(ptr noundef nonnull %29) #23
  %.pr.pre = load ptr, ptr %_data, align 8
  %isnull45 = icmp eq ptr %.pr.pre, null
  br i1 %isnull45, label %delete.end47, label %delete.notnull46

delete.notnull46:                                 ; preds = %if.then37, %if.end34, %if.end43
  %30 = phi ptr [ %.pr.pre, %if.end43 ], [ %27, %if.end34 ], [ %27, %if.then37 ]
  tail call void @_ZN7Imf_3_222DeepScanLineOutputFile4DataD1Ev(ptr noundef nonnull align 8 dereferenceable(377) %30) #20
  tail call void @_ZdlPv(ptr noundef nonnull %30) #23
  br label %delete.end47

delete.end47:                                     ; preds = %delete.notnull46, %if.end43
  tail call void @_ZN7Imf_3_217GenericOutputFileD2Ev(ptr noundef nonnull align 8 dereferenceable(8) %this) #20
  ret void

terminate.lpad:                                   ; preds = %if.then.i.i, %lpad, %invoke.cont
  %31 = landingpad { ptr, i32 }
          catch ptr null
  %32 = extractvalue { ptr, i32 } %31, 0
  tail call void @__clang_call_terminate(ptr %32) #22
  unreachable
}